target datalayout = "e-m:e-p270:32:32-p271:32:32-p272:64:64-i64:64-i128:128-f80:128-n8:16:32:64-S128"
target triple = "x86_64-pc-linux-gnu"

; Function Attrs: nounwind uwtable
define internal void @iblend_hline16(ptr noundef %0, i32 noundef %1, i32 noundef %2, float noundef %3, float noundef %4, i32 noundef %5, i32 noundef %6) #1 {
  %8 = alloca ptr, align 8
  %9 = alloca i32, align 4
  %10 = alloca i32, align 4
  %11 = alloca float, align 4
  %12 = alloca float, align 4
  %13 = alloca i32, align 4
  %14 = alloca i32, align 4
  %15 = alloca ptr, align 8
  %16 = alloca i32, align 4
  store ptr %0, ptr %8, align 8, !tbaa !77
  store i32 %1, ptr %9, align 4, !tbaa !47
  store i32 %2, ptr %10, align 4, !tbaa !47
  store float %3, ptr %11, align 4, !tbaa !69
  store float %4, ptr %12, align 4, !tbaa !69
  store i32 %5, ptr %13, align 4, !tbaa !47
  store i32 %6, ptr %14, align 4, !tbaa !47
  call void @llvm.lifetime.start.p0(i64 8, ptr %15) #10
  %17 = load ptr, ptr %8, align 8, !tbaa !77
  store ptr %17, ptr %15, align 8, !tbaa !79
  call void @llvm.lifetime.start.p0(i64 4, ptr %16) #10
  store i32 0, ptr %16, align 4, !tbaa !47
  br label %18

18:                                               ; preds = %48, %7
  %19 = load i32, ptr %16, align 4, !tbaa !47
  %20 = load i32, ptr %9, align 4, !tbaa !47
  %21 = icmp slt i32 %19, %20
  br i1 %21, label %22, label %52

22:                                               ; preds = %18
  %23 = load i32, ptr %13, align 4, !tbaa !47
  %24 = load ptr, ptr %15, align 8, !tbaa !79
  %25 = load i32, ptr %16, align 4, !tbaa !47
  %26 = sext i32 %25 to i64
  %27 = getelementptr inbounds i16, ptr %24, i64 %26
  %28 = load i16, ptr %27, align 2, !tbaa !81
  %29 = zext i16 %28 to i32
  %30 = sub nsw i32 %23, %29
  %31 = sitofp i32 %30 to float
  %32 = load float, ptr %11, align 4, !tbaa !69
  %33 = load ptr, ptr %15, align 8, !tbaa !79
  %34 = load i32, ptr %16, align 4, !tbaa !47
  %35 = sext i32 %34 to i64
  %36 = getelementptr inbounds i16, ptr %33, i64 %35
  %37 = load i16, ptr %36, align 2, !tbaa !81
  %38 = zext i16 %37 to i32
  %39 = sitofp i32 %38 to float
  %40 = load float, ptr %12, align 4, !tbaa !69
  %41 = fmul nsz float %39, %40
  %42 = call nsz float @llvm.fmuladd.f32(float %31, float %32, float %41)
  %43 = fptoui float %42 to i16
  %44 = load ptr, ptr %15, align 8, !tbaa !79
  %45 = load i32, ptr %16, align 4, !tbaa !47
  %46 = sext i32 %45 to i64
  %47 = getelementptr inbounds i16, ptr %44, i64 %46
  store i16 %43, ptr %47, align 2, !tbaa !81
  br label %48

48:                                               ; preds = %22
  %49 = load i32, ptr %14, align 4, !tbaa !47
  %50 = load i32, ptr %16, align 4, !tbaa !47
  %51 = add nsw i32 %50, %49
  store i32 %51, ptr %16, align 4, !tbaa !47
  br label %18, !llvm.loop !231

52:                                               ; preds = %18
  call void @llvm.lifetime.end.p0(i64 4, ptr %16) #10
  call void @llvm.lifetime.end.p0(i64 8, ptr %15) #10
  ret void
}