; Function Attrs: nofree norecurse nosync nounwind memory(argmem: readwrite) uwtable
define internal void @iblend_hline16(ptr noundef captures(none) %0, i32 noundef %1, i32 %2, float noundef %3, float noundef %4, i32 noundef %5, i32 noundef %6) #8 {
  %8 = icmp sgt i32 %1, 0
  br i1 %8, label %.lr.ph.preheader, label %._crit_edge

.lr.ph.preheader:                                 ; preds = %7
  %9 = sext i32 %6 to i64
  %10 = zext nneg i32 %1 to i64
  br label %.lr.ph

.lr.ph:                                           ; preds = %.lr.ph.preheader, %.lr.ph
  %indvars.iv = phi i64 [ 0, %.lr.ph.preheader ], [ %indvars.iv.next, %.lr.ph ]
  %11 = getelementptr inbounds i16, ptr %0, i64 %indvars.iv
  %12 = load i16, ptr %11, align 2, !tbaa !72
  %13 = zext i16 %12 to i32
  %14 = sub nsw i32 %5, %13
  %15 = sitofp i32 %14 to float
  %16 = uitofp i16 %12 to float
  %17 = fmul nsz float %4, %16
  %18 = tail call nsz float @llvm.fmuladd.f32(float %15, float %3, float %17)
  %19 = fptoui float %18 to i16
  store i16 %19, ptr %11, align 2, !tbaa !72
  %indvars.iv.next = add nsw i64 %indvars.iv, %9
  %20 = icmp slt i64 %indvars.iv.next, %10
  br i1 %20, label %.lr.ph, label %._crit_edge, !llvm.loop !270

._crit_edge:                                      ; preds = %.lr.ph, %7
  ret void
}